Certificate:
    Data:
        Version: 3 (0x2)
        Serial Number: 5 (0x5)
    Signature Algorithm: sha256WithRSAEncryption
        Issuer: C=CN, ST=BJ, L=BJ, O=fimi, OU=fimi, CN=fimi
        Validity
            Not Before: Dec  5 08:42:45 2016 GMT
            Not After : Apr  7 08:42:45 3016 GMT
        Subject: C=CN, ST=BJ, L=BJ, O=fimi, OU=fimi, CN=fimi
        Subject Public Key Info:
            Public Key Algorithm: rsaEncryption
                Public-Key: (1024 bit)
                Modulus:
                    00:d2:ba:f2:a9:7e:46:50:6d:1e:0f:50:3c:c5:81:
                    6b:9f:1a:d3:e1:85:b8:f3:3c:5f:02:27:3c:0f:8d:
                    48:73:1e:f5:f4:44:47:cc:0c:13:44:d9:d6:82:8f:
                    77:b3:bf:0c:23:5e:2f:c4:d0:0c:fa:25:17:30:5b:
                    cd:9c:a7:05:fd:8e:db:d6:24:6d:d1:c3:3d:43:c2:
                    e6:47:81:94:30:5a:e5:34:16:0e:b8:65:88:dc:21:
                    95:51:33:47:df:15:5a:3b:c9:1d:55:9e:9b:af:b6:
                    c9:93:8b:c9:01:db:8d:78:a7:a0:74:1a:50:0c:cd:
                    a8:c8:a0:29:f0:c6:4e:e1:3d
                Exponent: 65537 (0x10001)
        X509v3 extensions:
            X509v3 Basic Constraints: 
                CA:FALSE
            Netscape Comment: 
                OpenSSL Generated Certificate
            X509v3 Subject Key Identifier: 
                13:41:E5:78:D5:F5:5C:C3:97:5A:2B:C4:52:E4:32:26:A1:81:BB:A0
            X509v3 Authority Key Identifier: 
                keyid:D3:71:15:89:67:72:F9:3B:1B:CD:1E:12:3F:00:9D:76:52:99:49:2A

    Signature Algorithm: sha256WithRSAEncryption
         ad:db:9c:6d:27:9b:2e:c1:8f:a0:61:28:6b:a1:11:74:9c:1e:
         3f:ab:7d:65:18:9d:2a:08:8e:b0:ec:64:e0:68:45:7c:61:5e:
         70:b2:00:b2:5c:3f:95:3b:e8:42:7e:5d:e0:d2:e9:0d:c3:09:
         ad:ab:78:9d:b2:98:25:97:4e:29:df:78:b8:93:6b:b3:4b:38:
         2b:ec:c3:f0:64:6b:25:7e:ff:dc:27:45:20:06:d6:71:21:0c:
         43:d8:30:5c:b4:5f:cb:5b:8d:94:e7:fe:e4:c0:bb:fd:77:b0:
         c7:f5:51:0f:82:76:ed:bf:4f:72:57:5f:ce:83:1e:b6:a7:05:
         29:bf:89:34:17:95:62:2e:ea:60:f4:00:24:58:97:b4:9c:4a:
         28:8c:cb:18:19:4e:71:bc:1b:38:54:61:74:06:5e:1d:fd:6e:
         0f:fa:8a:eb:7a:ac:d6:14:79:21:df:ea:80:52:6f:d7:e1:4a:
         b8:7a:4c:30:73:68:8a:21:e1:db:7b:38:0c:4c:0d:6a:a4:96:
         d1:01:66:3a:22:7e:10:3b:b6:f4:bd:f3:34:76:8a:c9:64:fc:
         5a:c4:4b:e9:3f:7f:a9:a0:e4:9e:41:3f:1d:36:0f:39:ba:6c:
         1a:43:4e:4f:3d:fb:26:59:6a:23:13:19:3c:87:c8:37:c0:3f:
         22:42:71:e1
-----BEGIN CERTIFICATE-----
MIIDHDCCAgSgAwIBAgIBBTANBgkqhkiG9w0BAQsFADBUMQswCQYDVQQGEwJDTjEL
MAkGA1UECAwCQkoxCzAJBgNVBAcMAkJKMQ0wCwYDVQQKDARmaW1pMQ0wCwYDVQQL
DARmaW1pMQ0wCwYDVQQDDARmaW1pMCAXDTE2MTIwNTA4NDI0NVoYDzMwMTYwNDA3
MDg0MjQ1WjBUMQswCQYDVQQGEwJDTjELMAkGA1UECAwCQkoxCzAJBgNVBAcMAkJK
MQ0wCwYDVQQKDARmaW1pMQ0wCwYDVQQLDARmaW1pMQ0wCwYDVQQDDARmaW1pMIGf
MA0GCSqGSIb3DQEBAQUAA4GNADCBiQKBgQDSuvKpfkZQbR4PUDzFgWufGtPhhbjz
PF8CJzwPjUhzHvX0REfMDBNE2daCj3ezvwwjXi/E0Az6JRcwW82cpwX9jtvWJG3R
wz1DwuZHgZQwWuU0Fg64ZYjcIZVRM0ffFVo7yR1VnpuvtsmTi8kB2414p6B0GlAM
zajIoCnwxk7hPQIDAQABo3sweTAJBgNVHRMEAjAAMCwGCWCGSAGG+EIBDQQfFh1P
cGVuU1NMIEdlbmVyYXRlZCBDZXJ0aWZpY2F0ZTAdBgNVHQ4EFgQUE0HleNX1XMOX
WivEUuQyJqGBu6AwHwYDVR0jBBgwFoAU03EViWdy+TsbzR4SPwCddlKZSSowDQYJ
KoZIhvcNAQELBQADggEBAK3bnG0nmy7Bj6BhKGuhEXScHj+rfWUYnSoIjrDsZOBo
RXxhXnCyALJcP5U76EJ+XeDS6Q3DCa2reJ2ymCWXTinfeLiTa7NLOCvsw/BkayV+
/9wnRSAG1nEhDEPYMFy0X8tbjZTn/uTAu/13sMf1UQ+Cdu2/T3JXX86DHranBSm/
iTQXlWIu6mD0ACRYl7ScSiiMyxgZTnG8GzhUYXQGXh39bg/6iut6rNYUeSHf6oBS
b9fhSrh6TDBzaIoh4dt7OAxMDWqkltEBZjoifhA7tvS98zR2islk/FrES+k/f6mg
5J5BPx02Dzm6bBpDTk89+yZZaiMTGTyHyDfAPyJCceE=
-----END CERTIFICATE-----
